; Function Attrs: mustprogress null_pointer_is_valid sspstrong uwtable
define void @_ZN15RtpPlayerDialog10setMarkersEv(ptr noundef align 8 dereferenceable_or_null(472) initializes((200, 208)) %0) local_unnamed_addr #0 align 2 {
  %2 = getelementptr inbounds nuw i8, ptr %0, i64 144
  %3 = load ptr, ptr %2, align 8
  %4 = getelementptr inbounds nuw i8, ptr %3, i64 520
  %5 = load ptr, ptr %4, align 8
  %6 = tail call noundef zeroext i1 @_ZNK15QAbstractButton9isCheckedEv(ptr noundef align 8 dereferenceable_or_null(40) %5)
  %7 = getelementptr inbounds nuw i8, ptr %0, i64 192
  %8 = load double, ptr %7, align 8
  br i1 %6, label %9, label %18

9:                                                ; preds = %1
  %10 = getelementptr inbounds nuw i8, ptr %0, i64 176
  %11 = load double, ptr %10, align 8
  %12 = fadd double %8, %11
  %13 = fcmp olt double %12, 0.000000e+00
  %14 = select i1 %13, double %12, double 0.000000e+00
  %15 = fcmp olt double %11, %14
  %16 = select i1 %15, double %14, double %11
  %17 = fsub double %16, %11
  br label %_ZN15RtpPlayerDialog18setStartPlayMarkerEd.exit

18:                                               ; preds = %1
  %19 = getelementptr inbounds nuw i8, ptr %0, i64 168
  %20 = load double, ptr %19, align 8
  %21 = fadd double %8, %20
  %22 = fcmp olt double %21, 0.000000e+00
  %23 = select i1 %22, double %21, double 0.000000e+00
  %24 = fcmp olt double %20, %23
  %25 = select i1 %24, double %23, double %20
  br label %_ZN15RtpPlayerDialog18setStartPlayMarkerEd.exit

_ZN15RtpPlayerDialog18setStartPlayMarkerEd.exit:  ; preds = %9, %18
  %.sink.i = phi double [ %17, %9 ], [ %25, %18 ]
  %26 = getelementptr inbounds nuw i8, ptr %0, i64 200
  store double %.sink.i, ptr %26, align 8
  %27 = load ptr, ptr %2, align 8
  %28 = getelementptr inbounds nuw i8, ptr %27, i64 520
  %29 = load ptr, ptr %28, align 8
  %30 = tail call noundef zeroext i1 @_ZNK15QAbstractButton9isCheckedEv(ptr noundef align 8 dereferenceable_or_null(40) %29)
  %31 = load double, ptr %26, align 8
  br i1 %30, label %32, label %_ZN15RtpPlayerDialog19drawStartPlayMarkerEv.exit

32:                                               ; preds = %_ZN15RtpPlayerDialog18setStartPlayMarkerEd.exit
  %33 = getelementptr inbounds nuw i8, ptr %0, i64 176
  %34 = load double, ptr %33, align 8
  %35 = fadd double %31, %34
  br label %_ZN15RtpPlayerDialog19drawStartPlayMarkerEv.exit

_ZN15RtpPlayerDialog19drawStartPlayMarkerEv.exit: ; preds = %_ZN15RtpPlayerDialog18setStartPlayMarkerEd.exit, %32
  %.0.i.i = phi double [ %35, %32 ], [ %31, %_ZN15RtpPlayerDialog18setStartPlayMarkerEd.exit ]
  %36 = getelementptr inbounds nuw i8, ptr %0, i64 224
  %37 = load ptr, ptr %36, align 8
  %38 = getelementptr inbounds nuw i8, ptr %37, i64 136
  %39 = load ptr, ptr %38, align 8
  tail call void @_ZN15QCPItemPosition9setCoordsEdd(ptr noundef align 8 dereferenceable_or_null(160) %39, double noundef %.0.i.i, double noundef 0.000000e+00)
  %40 = load ptr, ptr %36, align 8
  %41 = getelementptr inbounds nuw i8, ptr %40, i64 144
  %42 = load ptr, ptr %41, align 8
  tail call void @_ZN15QCPItemPosition9setCoordsEdd(ptr noundef align 8 dereferenceable_or_null(160) %42, double noundef %.0.i.i, double noundef 1.000000e+00)
  tail call void @_ZN15RtpPlayerDialog15updateHintLabelEv(ptr noundef align 8 dereferenceable_or_null(472) %0)
  ret void
}